target datalayout = "e-m:e-p270:32:32-p271:32:32-p272:64:64-i64:64-i128:128-f80:128-n8:16:32:64-S128"
target triple = "x86_64-pc-linux-gnu"

%struct.b2ArenaEntryArray = type { ptr, i32, i32 }
%struct.b2ArenaAllocator = type { ptr, i32, i32, i32, i32, %struct.b2ArenaEntryArray }
%struct.b2ArenaEntry = type { ptr, ptr, i32, i8 }

; Function Attrs: inlinehint nounwind uwtable
define internal void @b2ArenaEntryArray_Pop(ptr dead_on_unwind noalias writable sret(%struct.b2ArenaEntry) align 8 %0, ptr noundef %1) #5 {
  %3 = alloca ptr, align 8
  store ptr %1, ptr %3, align 8, !tbaa !12
  %4 = load ptr, ptr %3, align 8, !tbaa !12
  %5 = getelementptr inbounds nuw %struct.b2ArenaEntryArray, ptr %4, i32 0, i32 0
  %6 = load ptr, ptr %5, align 8, !tbaa !7
  %7 = load ptr, ptr %3, align 8, !tbaa !12
  %8 = getelementptr inbounds nuw %struct.b2ArenaEntryArray, ptr %7, i32 0, i32 1
  %9 = load i32, ptr %8, align 8, !tbaa !13
  %10 = sub nsw i32 %9, 1
  %11 = sext i32 %10 to i64
  %12 = getelementptr inbounds %struct.b2ArenaEntry, ptr %6, i64 %11
  call void @llvm.memcpy.p0.p0.i64(ptr align 8 %0, ptr align 8 %12, i64 24, i1 false), !tbaa.struct !32
  %13 = load ptr, ptr %3, align 8, !tbaa !12
  %14 = getelementptr inbounds nuw %struct.b2ArenaEntryArray, ptr %13, i32 0, i32 1
  %15 = load i32, ptr %14, align 8, !tbaa !13
  %16 = sub nsw i32 %15, 1
  store i32 %16, ptr %14, align 8, !tbaa !13
  ret void
}

; Function Attrs: nounwind uwtable
define hidden void @b2FreeArenaItem(ptr noundef %0, ptr noundef %1) #0 {
  %3 = alloca ptr, align 8
  %4 = alloca ptr, align 8
  %5 = alloca i32, align 4
  %6 = alloca ptr, align 8
  %7 = alloca %struct.b2ArenaEntry, align 8
  store ptr %0, ptr %3, align 8, !tbaa !23
  store ptr %1, ptr %4, align 8, !tbaa !12
  call void @llvm.lifetime.start.p0(i64 4, ptr %5) #6
  %8 = load ptr, ptr %3, align 8, !tbaa !23
  %9 = getelementptr inbounds nuw %struct.b2ArenaAllocator, ptr %8, i32 0, i32 5
  %10 = getelementptr inbounds nuw %struct.b2ArenaEntryArray, ptr %9, i32 0, i32 1
  %11 = load i32, ptr %10, align 8, !tbaa !34
  store i32 %11, ptr %5, align 4, !tbaa !3
  call void @llvm.lifetime.start.p0(i64 8, ptr %6) #6
  %12 = load ptr, ptr %3, align 8, !tbaa !23
  %13 = getelementptr inbounds nuw %struct.b2ArenaAllocator, ptr %12, i32 0, i32 5
  %14 = getelementptr inbounds nuw %struct.b2ArenaEntryArray, ptr %13, i32 0, i32 0
  %15 = load ptr, ptr %14, align 8, !tbaa !35
  %16 = load i32, ptr %5, align 4, !tbaa !3
  %17 = sub nsw i32 %16, 1
  %18 = sext i32 %17 to i64
  %19 = getelementptr inbounds %struct.b2ArenaEntry, ptr %15, i64 %18
  store ptr %19, ptr %6, align 8, !tbaa !22
  %20 = load ptr, ptr %6, align 8, !tbaa !22
  %21 = getelementptr inbounds nuw %struct.b2ArenaEntry, ptr %20, i32 0, i32 3
  %22 = load i8, ptr %21, align 4, !tbaa !31, !range !36, !noundef !37
  %23 = trunc i8 %22 to i1
  br i1 %23, label %24, label %29

24:                                               ; preds = %2
  %25 = load ptr, ptr %4, align 8, !tbaa !12
  %26 = load ptr, ptr %6, align 8, !tbaa !22
  %27 = getelementptr inbounds nuw %struct.b2ArenaEntry, ptr %26, i32 0, i32 2
  %28 = load i32, ptr %27, align 8, !tbaa !26
  call void @b2Free(ptr noundef %25, i32 noundef %28)
  br label %37

29:                                               ; preds = %2
  %30 = load ptr, ptr %6, align 8, !tbaa !22
  %31 = getelementptr inbounds nuw %struct.b2ArenaEntry, ptr %30, i32 0, i32 2
  %32 = load i32, ptr %31, align 8, !tbaa !26
  %33 = load ptr, ptr %3, align 8, !tbaa !23
  %34 = getelementptr inbounds nuw %struct.b2ArenaAllocator, ptr %33, i32 0, i32 2
  %35 = load i32, ptr %34, align 4, !tbaa !20
  %36 = sub nsw i32 %35, %32
  store i32 %36, ptr %34, align 4, !tbaa !20
  br label %37

37:                                               ; preds = %29, %24
  %38 = load ptr, ptr %6, align 8, !tbaa !22
  %39 = getelementptr inbounds nuw %struct.b2ArenaEntry, ptr %38, i32 0, i32 2
  %40 = load i32, ptr %39, align 8, !tbaa !26
  %41 = load ptr, ptr %3, align 8, !tbaa !23
  %42 = getelementptr inbounds nuw %struct.b2ArenaAllocator, ptr %41, i32 0, i32 3
  %43 = load i32, ptr %42, align 8, !tbaa !18
  %44 = sub nsw i32 %43, %40
  store i32 %44, ptr %42, align 8, !tbaa !18
  %45 = load ptr, ptr %3, align 8, !tbaa !23
  %46 = getelementptr inbounds nuw %struct.b2ArenaAllocator, ptr %45, i32 0, i32 5
  call void @llvm.lifetime.start.p0(i64 24, ptr %7) #6
  call void @b2ArenaEntryArray_Pop(ptr dead_on_unwind writable sret(%struct.b2ArenaEntry) align 8 %7, ptr noundef %46)
  call void @llvm.lifetime.end.p0(i64 24, ptr %7) #6
  call void @llvm.lifetime.end.p0(i64 8, ptr %6) #6
  call void @llvm.lifetime.end.p0(i64 4, ptr %5) #6
  ret void
}