; Function Attrs: nounwind uwtable
define hidden void @b2FreeArenaItem(ptr noundef captures(none) %0, ptr noundef %1) local_unnamed_addr #0 {
  %3 = getelementptr inbounds nuw i8, ptr %0, i64 24
  %4 = getelementptr inbounds nuw i8, ptr %0, i64 32
  %5 = load i32, ptr %4, align 8, !tbaa !24
  %6 = load ptr, ptr %3, align 8, !tbaa !25
  %7 = sext i32 %5 to i64
  %8 = getelementptr %struct.b2ArenaEntry, ptr %6, i64 %7
  %9 = getelementptr i8, ptr %8, i64 -4
  %10 = load i8, ptr %9, align 4, !tbaa !26, !range !28, !noundef !29
  %11 = trunc nuw i8 %10 to i1
  %12 = getelementptr i8, ptr %8, i64 -8
  %13 = load i32, ptr %12, align 8, !tbaa !30
  br i1 %11, label %14, label %15

14:                                               ; preds = %2
  tail call void @b2Free(ptr noundef %1, i32 noundef %13) #4
  %.pre = load i32, ptr %12, align 8, !tbaa !30
  %.pre10 = load i32, ptr %4, align 8, !tbaa !19, !noalias !31
  br label %19

15:                                               ; preds = %2
  %16 = getelementptr inbounds nuw i8, ptr %0, i64 12
  %17 = load i32, ptr %16, align 4, !tbaa !17
  %18 = sub nsw i32 %17, %13
  store i32 %18, ptr %16, align 4, !tbaa !17
  br label %19

19:                                               ; preds = %15, %14
  %20 = phi i32 [ %5, %15 ], [ %.pre10, %14 ]
  %21 = phi i32 [ %13, %15 ], [ %.pre, %14 ]
  %22 = getelementptr inbounds nuw i8, ptr %0, i64 16
  %23 = load i32, ptr %22, align 8, !tbaa !15
  %24 = sub nsw i32 %23, %21
  store i32 %24, ptr %22, align 8, !tbaa !15
  %25 = add nsw i32 %20, -1
  store i32 %25, ptr %4, align 8, !tbaa !19, !noalias !31
  ret void
}